
generated_merge_sort/merge_sort:     file format elf32-littleriscv


Disassembly of section .text:

00010054 <_start>:
   10054:	fd010113          	addi	sp,sp,-48
   10058:	02112623          	sw	ra,44(sp)
   1005c:	02812423          	sw	s0,40(sp)
   10060:	03010413          	addi	s0,sp,48
   10064:	00c00793          	li	a5,12
   10068:	fcf42c23          	sw	a5,-40(s0)
   1006c:	00b00793          	li	a5,11
   10070:	fcf42e23          	sw	a5,-36(s0)
   10074:	00700793          	li	a5,7
   10078:	fef42023          	sw	a5,-32(s0)
   1007c:	03200793          	li	a5,50
   10080:	fef42223          	sw	a5,-28(s0)
   10084:	01a00793          	li	a5,26
   10088:	fef42423          	sw	a5,-24(s0)
   1008c:	00500793          	li	a5,5
   10090:	fef42623          	sw	a5,-20(s0)
   10094:	fec42783          	lw	a5,-20(s0)
   10098:	fff78713          	addi	a4,a5,-1
   1009c:	fd840793          	addi	a5,s0,-40
   100a0:	00070613          	mv	a2,a4
   100a4:	00000593          	li	a1,0
   100a8:	00078513          	mv	a0,a5
   100ac:	39c000ef          	jal	ra,10448 <mergeSort>
   100b0:	00000793          	li	a5,0
   100b4:	00078513          	mv	a0,a5
   100b8:	02c12083          	lw	ra,44(sp)
   100bc:	02812403          	lw	s0,40(sp)
   100c0:	03010113          	addi	sp,sp,48
   100c4:	00008067          	ret

000100c8 <merge>:
   100c8:	fa010113          	addi	sp,sp,-96
   100cc:	04812e23          	sw	s0,92(sp)
   100d0:	05212c23          	sw	s2,88(sp)
   100d4:	05312a23          	sw	s3,84(sp)
   100d8:	05412823          	sw	s4,80(sp)
   100dc:	05512623          	sw	s5,76(sp)
   100e0:	05612423          	sw	s6,72(sp)
   100e4:	05712223          	sw	s7,68(sp)
   100e8:	06010413          	addi	s0,sp,96
   100ec:	faa42623          	sw	a0,-84(s0)
   100f0:	fab42423          	sw	a1,-88(s0)
   100f4:	fac42223          	sw	a2,-92(s0)
   100f8:	fad42023          	sw	a3,-96(s0)
   100fc:	00010693          	mv	a3,sp
   10100:	00068593          	mv	a1,a3
   10104:	fa442603          	lw	a2,-92(s0)
   10108:	fa842683          	lw	a3,-88(s0)
   1010c:	40d606b3          	sub	a3,a2,a3
   10110:	00168693          	addi	a3,a3,1
   10114:	fcd42823          	sw	a3,-48(s0)
   10118:	fa042603          	lw	a2,-96(s0)
   1011c:	fa442683          	lw	a3,-92(s0)
   10120:	40d606b3          	sub	a3,a2,a3
   10124:	fcd42623          	sw	a3,-52(s0)
   10128:	fd042683          	lw	a3,-48(s0)
   1012c:	fff68613          	addi	a2,a3,-1
   10130:	fcc42423          	sw	a2,-56(s0)
   10134:	00068613          	mv	a2,a3
   10138:	00060b13          	mv	s6,a2
   1013c:	00000b93          	li	s7,0
   10140:	01bb5613          	srli	a2,s6,0x1b
   10144:	005b9e93          	slli	t4,s7,0x5
   10148:	01d66eb3          	or	t4,a2,t4
   1014c:	005b1e13          	slli	t3,s6,0x5
   10150:	00068613          	mv	a2,a3
   10154:	00060a13          	mv	s4,a2
   10158:	00000a93          	li	s5,0
   1015c:	01ba5613          	srli	a2,s4,0x1b
   10160:	005a9393          	slli	t2,s5,0x5
   10164:	007663b3          	or	t2,a2,t2
   10168:	005a1313          	slli	t1,s4,0x5
   1016c:	00269693          	slli	a3,a3,0x2
   10170:	00f68693          	addi	a3,a3,15
   10174:	0046d693          	srli	a3,a3,0x4
   10178:	00469693          	slli	a3,a3,0x4
   1017c:	40d10133          	sub	sp,sp,a3
   10180:	00010693          	mv	a3,sp
   10184:	00368693          	addi	a3,a3,3
   10188:	0026d693          	srli	a3,a3,0x2
   1018c:	00269693          	slli	a3,a3,0x2
   10190:	fcd42223          	sw	a3,-60(s0)
   10194:	fcc42683          	lw	a3,-52(s0)
   10198:	fff68613          	addi	a2,a3,-1
   1019c:	fcc42023          	sw	a2,-64(s0)
   101a0:	00068613          	mv	a2,a3
   101a4:	00060913          	mv	s2,a2
   101a8:	00000993          	li	s3,0
   101ac:	01b95613          	srli	a2,s2,0x1b
   101b0:	00599893          	slli	a7,s3,0x5
   101b4:	011668b3          	or	a7,a2,a7
   101b8:	00591813          	slli	a6,s2,0x5
   101bc:	00068613          	mv	a2,a3
   101c0:	00060f13          	mv	t5,a2
   101c4:	00000f93          	li	t6,0
   101c8:	01bf5613          	srli	a2,t5,0x1b
   101cc:	005f9793          	slli	a5,t6,0x5
   101d0:	00f667b3          	or	a5,a2,a5
   101d4:	005f1713          	slli	a4,t5,0x5
   101d8:	00068793          	mv	a5,a3
   101dc:	00279793          	slli	a5,a5,0x2
   101e0:	00f78793          	addi	a5,a5,15
   101e4:	0047d793          	srli	a5,a5,0x4
   101e8:	00479793          	slli	a5,a5,0x4
   101ec:	40f10133          	sub	sp,sp,a5
   101f0:	00010793          	mv	a5,sp
   101f4:	00378793          	addi	a5,a5,3
   101f8:	0027d793          	srli	a5,a5,0x2
   101fc:	00279793          	slli	a5,a5,0x2
   10200:	faf42e23          	sw	a5,-68(s0)
   10204:	fc042a23          	sw	zero,-44(s0)
   10208:	0400006f          	j	10248 <merge+0x180>
   1020c:	fa842703          	lw	a4,-88(s0)
   10210:	fd442783          	lw	a5,-44(s0)
   10214:	00f707b3          	add	a5,a4,a5
   10218:	00279793          	slli	a5,a5,0x2
   1021c:	fac42703          	lw	a4,-84(s0)
   10220:	00f707b3          	add	a5,a4,a5
   10224:	0007a703          	lw	a4,0(a5)
   10228:	fc442683          	lw	a3,-60(s0)
   1022c:	fd442783          	lw	a5,-44(s0)
   10230:	00279793          	slli	a5,a5,0x2
   10234:	00f687b3          	add	a5,a3,a5
   10238:	00e7a023          	sw	a4,0(a5)
   1023c:	fd442783          	lw	a5,-44(s0)
   10240:	00178793          	addi	a5,a5,1
   10244:	fcf42a23          	sw	a5,-44(s0)
   10248:	fd442703          	lw	a4,-44(s0)
   1024c:	fd042783          	lw	a5,-48(s0)
   10250:	faf74ee3          	blt	a4,a5,1020c <merge+0x144>
   10254:	fc042c23          	sw	zero,-40(s0)
   10258:	0440006f          	j	1029c <merge+0x1d4>
   1025c:	fa442783          	lw	a5,-92(s0)
   10260:	00178713          	addi	a4,a5,1
   10264:	fd842783          	lw	a5,-40(s0)
   10268:	00f707b3          	add	a5,a4,a5
   1026c:	00279793          	slli	a5,a5,0x2
   10270:	fac42703          	lw	a4,-84(s0)
   10274:	00f707b3          	add	a5,a4,a5
   10278:	0007a703          	lw	a4,0(a5)
   1027c:	fbc42683          	lw	a3,-68(s0)
   10280:	fd842783          	lw	a5,-40(s0)
   10284:	00279793          	slli	a5,a5,0x2
   10288:	00f687b3          	add	a5,a3,a5
   1028c:	00e7a023          	sw	a4,0(a5)
   10290:	fd842783          	lw	a5,-40(s0)
   10294:	00178793          	addi	a5,a5,1
   10298:	fcf42c23          	sw	a5,-40(s0)
   1029c:	fd842703          	lw	a4,-40(s0)
   102a0:	fcc42783          	lw	a5,-52(s0)
   102a4:	faf74ce3          	blt	a4,a5,1025c <merge+0x194>
   102a8:	fc042a23          	sw	zero,-44(s0)
   102ac:	fc042c23          	sw	zero,-40(s0)
   102b0:	fa842783          	lw	a5,-88(s0)
   102b4:	fcf42e23          	sw	a5,-36(s0)
   102b8:	0a80006f          	j	10360 <merge+0x298>
   102bc:	fc442703          	lw	a4,-60(s0)
   102c0:	fd442783          	lw	a5,-44(s0)
   102c4:	00279793          	slli	a5,a5,0x2
   102c8:	00f707b3          	add	a5,a4,a5
   102cc:	0007a703          	lw	a4,0(a5)
   102d0:	fbc42683          	lw	a3,-68(s0)
   102d4:	fd842783          	lw	a5,-40(s0)
   102d8:	00279793          	slli	a5,a5,0x2
   102dc:	00f687b3          	add	a5,a3,a5
   102e0:	0007a783          	lw	a5,0(a5)
   102e4:	02e7ce63          	blt	a5,a4,10320 <merge+0x258>
   102e8:	fdc42783          	lw	a5,-36(s0)
   102ec:	00279793          	slli	a5,a5,0x2
   102f0:	fac42703          	lw	a4,-84(s0)
   102f4:	00f707b3          	add	a5,a4,a5
   102f8:	fc442683          	lw	a3,-60(s0)
   102fc:	fd442703          	lw	a4,-44(s0)
   10300:	00271713          	slli	a4,a4,0x2
   10304:	00e68733          	add	a4,a3,a4
   10308:	00072703          	lw	a4,0(a4)
   1030c:	00e7a023          	sw	a4,0(a5)
   10310:	fd442783          	lw	a5,-44(s0)
   10314:	00178793          	addi	a5,a5,1
   10318:	fcf42a23          	sw	a5,-44(s0)
   1031c:	0380006f          	j	10354 <merge+0x28c>
   10320:	fdc42783          	lw	a5,-36(s0)
   10324:	00279793          	slli	a5,a5,0x2
   10328:	fac42703          	lw	a4,-84(s0)
   1032c:	00f707b3          	add	a5,a4,a5
   10330:	fbc42683          	lw	a3,-68(s0)
   10334:	fd842703          	lw	a4,-40(s0)
   10338:	00271713          	slli	a4,a4,0x2
   1033c:	00e68733          	add	a4,a3,a4
   10340:	00072703          	lw	a4,0(a4)
   10344:	00e7a023          	sw	a4,0(a5)
   10348:	fd842783          	lw	a5,-40(s0)
   1034c:	00178793          	addi	a5,a5,1
   10350:	fcf42c23          	sw	a5,-40(s0)
   10354:	fdc42783          	lw	a5,-36(s0)
   10358:	00178793          	addi	a5,a5,1
   1035c:	fcf42e23          	sw	a5,-36(s0)
   10360:	fd442703          	lw	a4,-44(s0)
   10364:	fd042783          	lw	a5,-48(s0)
   10368:	04f75a63          	bge	a4,a5,103bc <merge+0x2f4>
   1036c:	fd842703          	lw	a4,-40(s0)
   10370:	fcc42783          	lw	a5,-52(s0)
   10374:	f4f744e3          	blt	a4,a5,102bc <merge+0x1f4>
   10378:	0440006f          	j	103bc <merge+0x2f4>
   1037c:	fdc42783          	lw	a5,-36(s0)
   10380:	00279793          	slli	a5,a5,0x2
   10384:	fac42703          	lw	a4,-84(s0)
   10388:	00f707b3          	add	a5,a4,a5
   1038c:	fc442683          	lw	a3,-60(s0)
   10390:	fd442703          	lw	a4,-44(s0)
   10394:	00271713          	slli	a4,a4,0x2
   10398:	00e68733          	add	a4,a3,a4
   1039c:	00072703          	lw	a4,0(a4)
   103a0:	00e7a023          	sw	a4,0(a5)
   103a4:	fd442783          	lw	a5,-44(s0)
   103a8:	00178793          	addi	a5,a5,1
   103ac:	fcf42a23          	sw	a5,-44(s0)
   103b0:	fdc42783          	lw	a5,-36(s0)
   103b4:	00178793          	addi	a5,a5,1
   103b8:	fcf42e23          	sw	a5,-36(s0)
   103bc:	fd442703          	lw	a4,-44(s0)
   103c0:	fd042783          	lw	a5,-48(s0)
   103c4:	faf74ce3          	blt	a4,a5,1037c <merge+0x2b4>
   103c8:	0440006f          	j	1040c <merge+0x344>
   103cc:	fdc42783          	lw	a5,-36(s0)
   103d0:	00279793          	slli	a5,a5,0x2
   103d4:	fac42703          	lw	a4,-84(s0)
   103d8:	00f707b3          	add	a5,a4,a5
   103dc:	fbc42683          	lw	a3,-68(s0)
   103e0:	fd842703          	lw	a4,-40(s0)
   103e4:	00271713          	slli	a4,a4,0x2
   103e8:	00e68733          	add	a4,a3,a4
   103ec:	00072703          	lw	a4,0(a4)
   103f0:	00e7a023          	sw	a4,0(a5)
   103f4:	fd842783          	lw	a5,-40(s0)
   103f8:	00178793          	addi	a5,a5,1
   103fc:	fcf42c23          	sw	a5,-40(s0)
   10400:	fdc42783          	lw	a5,-36(s0)
   10404:	00178793          	addi	a5,a5,1
   10408:	fcf42e23          	sw	a5,-36(s0)
   1040c:	fd842703          	lw	a4,-40(s0)
   10410:	fcc42783          	lw	a5,-52(s0)
   10414:	faf74ce3          	blt	a4,a5,103cc <merge+0x304>
   10418:	00058113          	mv	sp,a1
   1041c:	00000013          	nop
   10420:	fa040113          	addi	sp,s0,-96
   10424:	05c12403          	lw	s0,92(sp)
   10428:	05812903          	lw	s2,88(sp)
   1042c:	05412983          	lw	s3,84(sp)
   10430:	05012a03          	lw	s4,80(sp)
   10434:	04c12a83          	lw	s5,76(sp)
   10438:	04812b03          	lw	s6,72(sp)
   1043c:	04412b83          	lw	s7,68(sp)
   10440:	06010113          	addi	sp,sp,96
   10444:	00008067          	ret

00010448 <mergeSort>:
   10448:	fd010113          	addi	sp,sp,-48
   1044c:	02112623          	sw	ra,44(sp)
   10450:	02812423          	sw	s0,40(sp)
   10454:	03010413          	addi	s0,sp,48
   10458:	fca42e23          	sw	a0,-36(s0)
   1045c:	fcb42c23          	sw	a1,-40(s0)
   10460:	fcc42a23          	sw	a2,-44(s0)
   10464:	fd842703          	lw	a4,-40(s0)
   10468:	fd442783          	lw	a5,-44(s0)
   1046c:	06f75463          	bge	a4,a5,104d4 <mergeSort+0x8c>
   10470:	fd442703          	lw	a4,-44(s0)
   10474:	fd842783          	lw	a5,-40(s0)
   10478:	40f707b3          	sub	a5,a4,a5
   1047c:	01f7d713          	srli	a4,a5,0x1f
   10480:	00f707b3          	add	a5,a4,a5
   10484:	4017d793          	srai	a5,a5,0x1
   10488:	00078713          	mv	a4,a5
   1048c:	fd842783          	lw	a5,-40(s0)
   10490:	00e787b3          	add	a5,a5,a4
   10494:	fef42623          	sw	a5,-20(s0)
   10498:	fec42603          	lw	a2,-20(s0)
   1049c:	fd842583          	lw	a1,-40(s0)
   104a0:	fdc42503          	lw	a0,-36(s0)
   104a4:	fa5ff0ef          	jal	ra,10448 <mergeSort>
   104a8:	fec42783          	lw	a5,-20(s0)
   104ac:	00178793          	addi	a5,a5,1
   104b0:	fd442603          	lw	a2,-44(s0)
   104b4:	00078593          	mv	a1,a5
   104b8:	fdc42503          	lw	a0,-36(s0)
   104bc:	f8dff0ef          	jal	ra,10448 <mergeSort>
   104c0:	fd442683          	lw	a3,-44(s0)
   104c4:	fec42603          	lw	a2,-20(s0)
   104c8:	fd842583          	lw	a1,-40(s0)
   104cc:	fdc42503          	lw	a0,-36(s0)
   104d0:	bf9ff0ef          	jal	ra,100c8 <merge>
   104d4:	00000013          	nop
   104d8:	02c12083          	lw	ra,44(sp)
   104dc:	02812403          	lw	s0,40(sp)
   104e0:	03010113          	addi	sp,sp,48
   104e4:	00008067          	ret
